target datalayout = "e-m:e-p270:32:32-p271:32:32-p272:64:64-i64:64-i128:128-f80:128-n8:16:32:64-S128"
target triple = "x86_64-pc-linux-gnu"

%"class.cv::bioinspired::MagnoRetinaFilter" = type <{ ptr, %"class.cv::bioinspired::BasicRetinaFilter", %"class.std::valarray", %"class.std::valarray", %"class.std::valarray", %"class.std::valarray", %"class.std::valarray", %"class.std::valarray", %"class.std::valarray", %"class.std::valarray", ptr, ptr, float, [4 x i8] }>
%"class.cv::bioinspired::BasicRetinaFilter" = type { %"class.cv::bioinspired::TemplateBuffer", %"class.std::valarray", i32, i32, %"class.std::valarray", %"class.std::valarray", %"class.std::valarray", float, float, float, float, float, float, float, float }
%"class.cv::bioinspired::TemplateBuffer" = type { ptr, %"class.std::valarray", i64, i64, i64, i64, i64 }
%"class.std::valarray" = type { i64, ptr }

; Function Attrs: inlinehint mustprogress nounwind uwtable
define linkonce_odr noundef float @_ZSt3expf(float noundef %0) #6 comdat {
  %2 = alloca float, align 4
  store float %0, ptr %2, align 4, !tbaa !27
  %3 = load float, ptr %2, align 4, !tbaa !27
  %4 = call float @expf(float noundef %3) #3, !tbaa !8
  ret float %4
}

; Function Attrs: mustprogress uwtable
define hidden void @_ZN2cv11bioinspired17MagnoRetinaFilter20setCoefficientsTableEffffff(ptr noundef nonnull align 8 dereferenceable(324) %0, float noundef %1, float noundef %2, float noundef %3, float noundef %4, float noundef %5, float noundef %6) #4 align 2 {
  %8 = alloca ptr, align 8
  %9 = alloca float, align 4
  %10 = alloca float, align 4
  %11 = alloca float, align 4
  %12 = alloca float, align 4
  %13 = alloca float, align 4
  %14 = alloca float, align 4
  store ptr %0, ptr %8, align 8, !tbaa !3
  store float %1, ptr %9, align 4, !tbaa !27
  store float %2, ptr %10, align 4, !tbaa !27
  store float %3, ptr %11, align 4, !tbaa !27
  store float %4, ptr %12, align 4, !tbaa !27
  store float %5, ptr %13, align 4, !tbaa !27
  store float %6, ptr %14, align 4, !tbaa !27
  %15 = load ptr, ptr %8, align 8
  %16 = load float, ptr %12, align 4, !tbaa !27
  %17 = fdiv float -1.000000e+00, %16
  %18 = call noundef float @_ZSt3expf(float noundef %17)
  %19 = getelementptr inbounds nuw %"class.cv::bioinspired::MagnoRetinaFilter", ptr %15, i32 0, i32 12
  store float %18, ptr %19, align 8, !tbaa !31
  %20 = getelementptr inbounds i8, ptr %15, i64 8
  %21 = load float, ptr %9, align 4, !tbaa !27
  %22 = load float, ptr %10, align 4, !tbaa !27
  %23 = load float, ptr %11, align 4, !tbaa !27
  call void @_ZN2cv11bioinspired17BasicRetinaFilter21setLPfilterParametersEfffj(ptr noundef nonnull align 8 dereferenceable(168) %20, float noundef %21, float noundef %22, float noundef %23, i32 noundef 0)
  %24 = getelementptr inbounds i8, ptr %15, i64 8
  %25 = load float, ptr %13, align 4, !tbaa !27
  %26 = load float, ptr %14, align 4, !tbaa !27
  call void @_ZN2cv11bioinspired17BasicRetinaFilter21setLPfilterParametersEfffj(ptr noundef nonnull align 8 dereferenceable(168) %24, float noundef 0.000000e+00, float noundef %25, float noundef %26, i32 noundef 1)
  ret void
}