; Function Attrs: mustprogress uwtable
define hidden void @_ZN2cv11bioinspired17MagnoRetinaFilter20setCoefficientsTableEffffff(ptr noundef nonnull align 8 dereferenceable(324) initializes((320, 324)) %0, float noundef %1, float noundef %2, float noundef %3, float noundef %4, float noundef %5, float noundef %6) local_unnamed_addr #3 align 2 {
  %8 = fdiv float -1.000000e+00, %4
  %9 = tail call noundef float @expf(float noundef %8) #14, !tbaa !53
  %10 = getelementptr inbounds nuw i8, ptr %0, i64 320
  store float %9, ptr %10, align 8, !tbaa !54
  %11 = getelementptr inbounds nuw i8, ptr %0, i64 8
  tail call void @_ZN2cv11bioinspired17BasicRetinaFilter21setLPfilterParametersEfffj(ptr noundef nonnull align 8 dereferenceable(168) %11, float noundef %1, float noundef %2, float noundef %3, i32 noundef 0)
  tail call void @_ZN2cv11bioinspired17BasicRetinaFilter21setLPfilterParametersEfffj(ptr noundef nonnull align 8 dereferenceable(168) %11, float noundef 0.000000e+00, float noundef %5, float noundef %6, i32 noundef 1)
  ret void
}